target datalayout = "e-m:e-p270:32:32-p271:32:32-p272:64:64-i64:64-i128:128-f80:128-n8:16:32:64-S128"
target triple = "x86_64-pc-linux-gnu"

%"class.pxrInternal_v0_24__pxrReserved__::pxr_double_conversion::Vector" = type <{ ptr, i32, [4 x i8] }>

; Function Attrs: mustprogress uwtable
define linkonce_odr void @_ZN32pxrInternal_v0_24__pxrReserved__21pxr_double_conversion6Bignum7Times10Ev(ptr noundef nonnull align 4 dereferenceable(516) %0) #0 comdat align 2 {
  %2 = alloca ptr, align 8
  store ptr %0, ptr %2, align 8
  %3 = load ptr, ptr %2, align 8
  call void @_ZN32pxrInternal_v0_24__pxrReserved__21pxr_double_conversion6Bignum16MultiplyByUInt32Ej(ptr noundef nonnull align 4 dereferenceable(516) %3, i32 noundef 10)
  ret void
}

; Function Attrs: mustprogress nounwind uwtable
define linkonce_odr noundef nonnull align 1 dereferenceable(1) ptr @_ZNK32pxrInternal_v0_24__pxrReserved__21pxr_double_conversion6VectorIcEixEi(ptr noundef nonnull align 8 dereferenceable(12) %0, i32 noundef %1) #1 comdat align 2 {
  %3 = alloca ptr, align 8
  %4 = alloca i32, align 4
  store ptr %0, ptr %3, align 8
  store i32 %1, ptr %4, align 4
  %5 = load ptr, ptr %3, align 8
  %6 = getelementptr inbounds nuw %"class.pxrInternal_v0_24__pxrReserved__::pxr_double_conversion::Vector", ptr %5, i32 0, i32 0
  %7 = load ptr, ptr %6, align 8
  %8 = load i32, ptr %4, align 4
  %9 = sext i32 %8 to i64
  %10 = getelementptr inbounds i8, ptr %7, i64 %9
  ret ptr %10
}

; Function Attrs: mustprogress uwtable
define internal void @_ZN32pxrInternal_v0_24__pxrReserved__21pxr_double_conversionL21GenerateCountedDigitsEiPiPNS0_6BignumES3_NS0_6VectorIcEES1_(i32 noundef %0, ptr noundef %1, ptr noundef %2, ptr noundef %3, ptr %4, i32 %5, ptr noundef %6) #0 {
  %8 = alloca %"class.pxrInternal_v0_24__pxrReserved__::pxr_double_conversion::Vector", align 8
  %9 = alloca i32, align 4
  %10 = alloca ptr, align 8
  %11 = alloca ptr, align 8
  %12 = alloca ptr, align 8
  %13 = alloca ptr, align 8
  %14 = alloca i32, align 4
  %15 = alloca i16, align 2
  %16 = alloca i16, align 2
  %17 = alloca i32, align 4
  %18 = getelementptr inbounds nuw { ptr, i32 }, ptr %8, i32 0, i32 0
  store ptr %4, ptr %18, align 8
  %19 = getelementptr inbounds nuw { ptr, i32 }, ptr %8, i32 0, i32 1
  store i32 %5, ptr %19, align 8
  store i32 %0, ptr %9, align 4
  store ptr %1, ptr %10, align 8
  store ptr %2, ptr %11, align 8
  store ptr %3, ptr %12, align 8
  store ptr %6, ptr %13, align 8
  store i32 0, ptr %14, align 4
  br label %20

20:                                               ; preds = %36, %7
  %21 = load i32, ptr %14, align 4
  %22 = load i32, ptr %9, align 4
  %23 = sub nsw i32 %22, 1
  %24 = icmp slt i32 %21, %23
  br i1 %24, label %25, label %39

25:                                               ; preds = %20
  %26 = load ptr, ptr %11, align 8
  %27 = load ptr, ptr %12, align 8
  %28 = call noundef zeroext i16 @_ZN32pxrInternal_v0_24__pxrReserved__21pxr_double_conversion6Bignum21DivideModuloIntBignumERKS1_(ptr noundef nonnull align 4 dereferenceable(516) %26, ptr noundef nonnull align 4 dereferenceable(516) %27)
  store i16 %28, ptr %15, align 2
  %29 = load i16, ptr %15, align 2
  %30 = zext i16 %29 to i32
  %31 = add nsw i32 %30, 48
  %32 = trunc i32 %31 to i8
  %33 = load i32, ptr %14, align 4
  %34 = call noundef nonnull align 1 dereferenceable(1) ptr @_ZNK32pxrInternal_v0_24__pxrReserved__21pxr_double_conversion6VectorIcEixEi(ptr noundef nonnull align 8 dereferenceable(12) %8, i32 noundef %33)
  store i8 %32, ptr %34, align 1
  %35 = load ptr, ptr %11, align 8
  call void @_ZN32pxrInternal_v0_24__pxrReserved__21pxr_double_conversion6Bignum7Times10Ev(ptr noundef nonnull align 4 dereferenceable(516) %35)
  br label %36

36:                                               ; preds = %25
  %37 = load i32, ptr %14, align 4
  %38 = add nsw i32 %37, 1
  store i32 %38, ptr %14, align 4
  br label %20, !llvm.loop !7

39:                                               ; preds = %20
  %40 = load ptr, ptr %11, align 8
  %41 = load ptr, ptr %12, align 8
  %42 = call noundef zeroext i16 @_ZN32pxrInternal_v0_24__pxrReserved__21pxr_double_conversion6Bignum21DivideModuloIntBignumERKS1_(ptr noundef nonnull align 4 dereferenceable(516) %40, ptr noundef nonnull align 4 dereferenceable(516) %41)
  store i16 %42, ptr %16, align 2
  %43 = load ptr, ptr %11, align 8
  %44 = load ptr, ptr %11, align 8
  %45 = load ptr, ptr %12, align 8
  %46 = call noundef i32 @_ZN32pxrInternal_v0_24__pxrReserved__21pxr_double_conversion6Bignum11PlusCompareERKS1_S3_S3_(ptr noundef nonnull align 4 dereferenceable(516) %43, ptr noundef nonnull align 4 dereferenceable(516) %44, ptr noundef nonnull align 4 dereferenceable(516) %45)
  %47 = icmp sge i32 %46, 0
  br i1 %47, label %48, label %51

48:                                               ; preds = %39
  %49 = load i16, ptr %16, align 2
  %50 = add i16 %49, 1
  store i16 %50, ptr %16, align 2
  br label %51

51:                                               ; preds = %48, %39
  %52 = load i16, ptr %16, align 2
  %53 = zext i16 %52 to i32
  %54 = add nsw i32 %53, 48
  %55 = trunc i32 %54 to i8
  %56 = load i32, ptr %9, align 4
  %57 = sub nsw i32 %56, 1
  %58 = call noundef nonnull align 1 dereferenceable(1) ptr @_ZNK32pxrInternal_v0_24__pxrReserved__21pxr_double_conversion6VectorIcEixEi(ptr noundef nonnull align 8 dereferenceable(12) %8, i32 noundef %57)
  store i8 %55, ptr %58, align 1
  %59 = load i32, ptr %9, align 4
  %60 = sub nsw i32 %59, 1
  store i32 %60, ptr %17, align 4
  br label %61

61:                                               ; preds = %79, %51
  %62 = load i32, ptr %17, align 4
  %63 = icmp sgt i32 %62, 0
  br i1 %63, label %64, label %82

64:                                               ; preds = %61
  %65 = load i32, ptr %17, align 4
  %66 = call noundef nonnull align 1 dereferenceable(1) ptr @_ZNK32pxrInternal_v0_24__pxrReserved__21pxr_double_conversion6VectorIcEixEi(ptr noundef nonnull align 8 dereferenceable(12) %8, i32 noundef %65)
  %67 = load i8, ptr %66, align 1
  %68 = sext i8 %67 to i32
  %69 = icmp ne i32 %68, 58
  br i1 %69, label %70, label %71

70:                                               ; preds = %64
  br label %82

71:                                               ; preds = %64
  %72 = load i32, ptr %17, align 4
  %73 = call noundef nonnull align 1 dereferenceable(1) ptr @_ZNK32pxrInternal_v0_24__pxrReserved__21pxr_double_conversion6VectorIcEixEi(ptr noundef nonnull align 8 dereferenceable(12) %8, i32 noundef %72)
  store i8 48, ptr %73, align 1
  %74 = load i32, ptr %17, align 4
  %75 = sub nsw i32 %74, 1
  %76 = call noundef nonnull align 1 dereferenceable(1) ptr @_ZNK32pxrInternal_v0_24__pxrReserved__21pxr_double_conversion6VectorIcEixEi(ptr noundef nonnull align 8 dereferenceable(12) %8, i32 noundef %75)
  %77 = load i8, ptr %76, align 1
  %78 = add i8 %77, 1
  store i8 %78, ptr %76, align 1
  br label %79

79:                                               ; preds = %71
  %80 = load i32, ptr %17, align 4
  %81 = add nsw i32 %80, -1
  store i32 %81, ptr %17, align 4
  br label %61, !llvm.loop !8

82:                                               ; preds = %70, %61
  %83 = call noundef nonnull align 1 dereferenceable(1) ptr @_ZNK32pxrInternal_v0_24__pxrReserved__21pxr_double_conversion6VectorIcEixEi(ptr noundef nonnull align 8 dereferenceable(12) %8, i32 noundef 0)
  %84 = load i8, ptr %83, align 1
  %85 = sext i8 %84 to i32
  %86 = icmp eq i32 %85, 58
  br i1 %86, label %87, label %92

87:                                               ; preds = %82
  %88 = call noundef nonnull align 1 dereferenceable(1) ptr @_ZNK32pxrInternal_v0_24__pxrReserved__21pxr_double_conversion6VectorIcEixEi(ptr noundef nonnull align 8 dereferenceable(12) %8, i32 noundef 0)
  store i8 49, ptr %88, align 1
  %89 = load ptr, ptr %10, align 8
  %90 = load i32, ptr %89, align 4
  %91 = add nsw i32 %90, 1
  store i32 %91, ptr %89, align 4
  br label %92

92:                                               ; preds = %87, %82
  %93 = load i32, ptr %9, align 4
  %94 = load ptr, ptr %13, align 8
  store i32 %93, ptr %94, align 4
  ret void
}